Certificate:
    Data:
        Version: 3 (0x2)
        Serial Number: 1 (0x1)
        Signature Algorithm: sha256WithRSAEncryption
        Issuer: C=BN, ST=Sylhet, L=Akhalia, Sylhet, O=TechNext, OU=SQA, CN=Sadia Islam Hridi/emailAddress=hridiswe@gmail.com
        Validity
            Not Before: Jul  9 23:10:21 2024 GMT
            Not After : Jul  9 23:10:21 2025 GMT
        Subject: C=BN, ST=Sylhet, O=TechNext, OU=SQA, CN=Sadia Islam Hridi/emailAddress=hridiswe@gmail.com
        Subject Public Key Info:
            Public Key Algorithm: rsaEncryption
                Public-Key: (1024 bit)
                Modulus:
                    00:be:c5:e7:7c:15:a5:bc:ff:41:f5:f0:db:fb:34:
                    0b:67:3b:5e:12:03:a3:60:4b:aa:31:52:95:5e:64:
                    a5:24:6b:c8:5b:dd:02:a8:4f:42:3a:22:59:25:91:
                    92:8d:36:90:df:13:4f:09:85:ee:9a:0b:c6:5a:65:
                    74:ea:a9:ee:57:d0:d9:15:b3:c7:28:5b:66:17:9a:
                    9b:21:cc:98:38:c1:5a:c1:48:8d:22:b1:b4:76:58:
                    8b:89:b7:db:88:1e:59:12:a7:d5:5b:f6:62:8d:d6:
                    c3:8f:ec:54:8c:f9:54:f4:b6:8e:bc:d8:3b:b6:38:
                    05:35:bb:0e:4a:1f:d7:d4:05
                Exponent: 65537 (0x10001)
        X509v3 extensions:
            X509v3 Basic Constraints: 
                CA:FALSE
            X509v3 Subject Key Identifier: 
                F1:25:AC:ED:0E:CB:34:B3:BD:61:8D:86:49:B6:28:65:88:D2:06:40
            X509v3 Authority Key Identifier: 
                57:DD:EA:6D:FD:B4:5D:95:E0:88:C2:16:76:9A:47:D1:53:B3:DF:64
    Signature Algorithm: sha256WithRSAEncryption
    Signature Value:
        b3:0d:88:48:81:cf:cf:d8:19:a2:23:6a:63:a1:b9:6a:6a:a6:
        97:7f:7b:d6:73:0c:37:43:b9:86:21:42:76:64:84:1c:25:03:
        19:0f:b9:41:3e:5c:a6:b0:cd:b2:8e:b7:cb:4f:38:de:16:13:
        1c:9d:2f:ea:99:f1:ba:09:a7:be:fb:fd:41:5b:a9:0c:56:bb:
        81:2c:3a:1d:53:17:47:37:94:97:9b:f1:38:21:24:f5:24:ed:
        56:67:6d:9b:a9:50:36:cc:74:d3:2d:c5:c1:7d:b5:5d:86:ee:
        5d:92:ea:12:c5:08:6a:32:70:4d:5c:b2:97:9d:0c:4a:15:22:
        45:a3:76:8e:a3:8c:dd:54:0b:2e:ad:b1:00:b1:2b:0f:7b:25:
        24:e9:34:18:50:9d:7c:71:fd:fc:c8:b8:a4:cc:e6:8f:aa:00:
        21:3d:3f:59:a9:b5:d4:fb:50:b0:75:b7:01:a6:58:9d:a4:7e:
        40:af:1e:8f:b6:a6:a7:74:94:5f:a1:d4:39:33:96:43:99:e6:
        5d:b9:53:11:83:91:23:ca:32:26:21:37:dd:21:54:f4:dc:39:
        6f:ae:19:12:46:b0:6c:18:da:d8:d8:36:aa:07:17:90:de:ae:
        16:7d:d3:5b:fc:70:2f:29:27:1f:41:7f:1a:59:f9:eb:5c:68:
        5e:c1:52:6b
-----BEGIN CERTIFICATE-----
MIIDWzCCAkOgAwIBAgIBATANBgkqhkiG9w0BAQsFADCBmDELMAkGA1UEBhMCQk4x
DzANBgNVBAgMBlN5bGhldDEYMBYGA1UEBwwPQWtoYWxpYSwgU3lsaGV0MREwDwYD
VQQKDAhUZWNoTmV4dDEMMAoGA1UECwwDU1FBMRowGAYDVQQDDBFTYWRpYSBJc2xh
bSBIcmlkaTEhMB8GCSqGSIb3DQEJARYSaHJpZGlzd2VAZ21haWwuY29tMB4XDTI0
MDcwOTIzMTAyMVoXDTI1MDcwOTIzMTAyMVowfjELMAkGA1UEBhMCQk4xDzANBgNV
BAgMBlN5bGhldDERMA8GA1UECgwIVGVjaE5leHQxDDAKBgNVBAsMA1NRQTEaMBgG
A1UEAwwRU2FkaWEgSXNsYW0gSHJpZGkxITAfBgkqhkiG9w0BCQEWEmhyaWRpc3dl
QGdtYWlsLmNvbTCBnzANBgkqhkiG9w0BAQEFAAOBjQAwgYkCgYEAvsXnfBWlvP9B
9fDb+zQLZzteEgOjYEuqMVKVXmSlJGvIW90CqE9COiJZJZGSjTaQ3xNPCYXumgvG
WmV06qnuV9DZFbPHKFtmF5qbIcyYOMFawUiNIrG0dliLibfbiB5ZEqfVW/ZijdbD
j+xUjPlU9LaOvNg7tjgFNbsOSh/X1AUCAwEAAaNNMEswCQYDVR0TBAIwADAdBgNV
HQ4EFgQU8SWs7Q7LNLO9YY2GSbYoZYjSBkAwHwYDVR0jBBgwFoAUV93qbf20XZXg
iMIWdppH0VOz32QwDQYJKoZIhvcNAQELBQADggEBALMNiEiBz8/YGaIjamOhuWpq
ppd/e9ZzDDdDuYYhQnZkhBwlAxkPuUE+XKawzbKOt8tPON4WExydL+qZ8boJp777
/UFbqQxWu4EsOh1TF0c3lJeb8TghJPUk7VZnbZupUDbMdNMtxcF9tV2G7l2S6hLF
CGoycE1cspedDEoVIkWjdo6jjN1UCy6tsQCxKw97JSTpNBhQnXxx/fzIuKTM5o+q
ACE9P1mptdT7ULB1twGmWJ2kfkCvHo+2pqd0lF+h1DkzlkOZ5l25UxGDkSPKMiYh
N90hVPTcOW+uGRJGsGwY2tjYNqoHF5DerhZ901v8cC8pJx9BfxpZ+etcaF7BUms=
-----END CERTIFICATE-----
